; Function Attrs: nounwind sspstrong uwtable
define internal fastcc range(i64 2, 4294967296) i64 @proc_wait(i32 noundef %0, ptr noundef readonly captures(none) %1) unnamed_addr #1 {
  %or.cond = icmp ugt i32 %0, 2
  br i1 %or.cond, label %3, label %rb_check_arity.exit

3:                                                ; preds = %2
  tail call void @rb_error_arity(i32 noundef %0, i32 noundef 0, i32 noundef 2) #29
  unreachable

rb_check_arity.exit:                              ; preds = %2
  %4 = icmp eq i32 %0, 0
  br i1 %4, label %21, label %5

5:                                                ; preds = %rb_check_arity.exit
  %6 = load i64, ptr %1, align 8, !tbaa !43
  %7 = and i64 %6, 1
  %.not.i = icmp eq i64 %7, 0
  br i1 %.not.i, label %10, label %8

8:                                                ; preds = %5
  %9 = tail call i64 @rb_fix2int(i64 noundef %6) #27
  br label %rb_num2int_inline.exit

10:                                               ; preds = %5
  %11 = tail call i64 @rb_num2int(i64 noundef %6) #27
  br label %rb_num2int_inline.exit

rb_num2int_inline.exit:                           ; preds = %8, %10
  %.0.i = phi i64 [ %9, %8 ], [ %11, %10 ]
  %12 = trunc i64 %.0.i to i32
  %13 = icmp eq i32 %0, 2
  br i1 %13, label %14, label %21

14:                                               ; preds = %rb_num2int_inline.exit
  %15 = getelementptr i8, ptr %1, i64 8
  %16 = load i64, ptr %15, align 8, !tbaa !43
  %17 = icmp eq i64 %16, 4
  br i1 %17, label %21, label %18

18:                                               ; preds = %14
  %19 = tail call i64 @rb_num2uint(i64 noundef %16) #27
  %20 = trunc i64 %19 to i32
  br label %21

21:                                               ; preds = %rb_num2int_inline.exit, %14, %18, %rb_check_arity.exit
  %.011 = phi i32 [ 0, %rb_check_arity.exit ], [ 0, %14 ], [ %20, %18 ], [ 0, %rb_num2int_inline.exit ]
  %.010 = phi i32 [ -1, %rb_check_arity.exit ], [ %12, %14 ], [ %12, %18 ], [ %12, %rb_num2int_inline.exit ]
  %22 = tail call i64 @rb_process_status_wait(i32 noundef %.010, i32 noundef %.011)
  %23 = icmp eq i64 %22, 4
  br i1 %23, label %..thread_crit_edge, label %24

..thread_crit_edge:                               ; preds = %21
  %.pre = tail call align 8 ptr @llvm.threadlocal.address.p0(ptr align 8 @ruby_current_ec)
  br label %.thread

24:                                               ; preds = %21
  %25 = tail call ptr @rb_check_typeddata(i64 noundef %22, ptr noundef nonnull @rb_process_status_type) #27
  %26 = load i32, ptr %25, align 4, !tbaa !49
  %27 = icmp eq i32 %26, -1
  br i1 %27, label %rb_waitpid.exit.thread, label %rb_waitpid.exit

rb_waitpid.exit.thread:                           ; preds = %24
  %28 = getelementptr inbounds nuw i8, ptr %25, i64 8
  %29 = load i32, ptr %28, align 4, !tbaa !52
  %30 = tail call ptr @rb_errno_ptr() #27
  store i32 %29, ptr %30, align 4, !tbaa !60
  br label %36

rb_waitpid.exit:                                  ; preds = %24
  %31 = tail call align 8 ptr @llvm.threadlocal.address.p0(ptr align 8 @ruby_current_ec)
  %32 = load ptr, ptr %31, align 8, !tbaa !7
  %33 = getelementptr i8, ptr %32, i64 48
  %.val.i.i = load ptr, ptr %33, align 8, !tbaa !12
  %34 = getelementptr inbounds nuw i8, ptr %.val.i.i, i64 208
  store i64 %22, ptr %34, align 8, !tbaa !24
  %35 = icmp slt i32 %26, 0
  br i1 %35, label %36, label %39

36:                                               ; preds = %rb_waitpid.exit.thread, %rb_waitpid.exit
  %37 = tail call ptr @rb_errno_ptr() #27
  %38 = load i32, ptr %37, align 4, !tbaa !60
  tail call void @rb_syserr_fail(i32 noundef %38, ptr noundef null) #29
  unreachable

39:                                               ; preds = %rb_waitpid.exit
  %40 = icmp eq i32 %26, 0
  br i1 %40, label %.thread, label %44

.thread:                                          ; preds = %..thread_crit_edge, %39
  %.pre-phi = phi ptr [ %.pre, %..thread_crit_edge ], [ %31, %39 ]
  %41 = load ptr, ptr %.pre-phi, align 8, !tbaa !7
  %42 = getelementptr i8, ptr %41, i64 48
  %.val.i.i15 = load ptr, ptr %42, align 8, !tbaa !12
  %43 = getelementptr inbounds nuw i8, ptr %.val.i.i15, i64 208
  store i64 4, ptr %43, align 8, !tbaa !24
  br label %48

44:                                               ; preds = %39
  %45 = shl nuw i32 %26, 1
  %46 = or disjoint i32 %45, 1
  %47 = zext i32 %46 to i64
  br label %48

48:                                               ; preds = %44, %.thread
  %.0 = phi i64 [ 4, %.thread ], [ %47, %44 ]
  ret i64 %.0
}